ccopy_reg
_reconstructor
p0
(csklearn.linear_model.base
LinearRegression
p1
c__builtin__
object
p2
Ntp3
Rp4
(dp5
S'normalize'
p6
I00
sS'n_jobs'
p7
I10
sS'rank_'
p8
I4
sS'fit_intercept'
p9
I01
sS'_residues'
p10
cnumpy.core.multiarray
scalar
p11
(cnumpy
dtype
p12
(S'f8'
p13
I0
I1
tp14
Rp15
(I3
S'<'
p16
NNNI-1
I-1
I0
tp17
bS'0\xd2\x8a\x90K\x90RA'
p18
tp19
Rp20
sS'singular_'
p21
cnumpy.core.multiarray
_reconstruct
p22
(cnumpy
ndarray
p23
(I0
tp24
S'b'
p25
tp26
Rp27
(I1
(I4
tp28
g15
I00
S'\x07)j\xdc\x0c\xa8Z@\xc4\xa1\xcc\x80s\x1bW@\x05\xc6\x97\xf2\xc4\xfcR@\xf8\xf1\xe35\x02\xc5K@'
p29
tp30
bsS'coef_'
p31
g22
(g23
(I0
tp32
g25
tp33
Rp34
(I1
(I4
tp35
g15
I00
S'\xff}\xb7N\xd2\x14b@P\xe9\xc4\x988\xe4\xa8\xbf\xa1\xa8R\x18\xe9\xf7\xf0?g\xd4\x12\x15\xf4.\xe0\xbf'
p36
tp37
bsS'_sklearn_version'
p38
S'0.18.1'
p39
sS'copy_X'
p40
I01
sS'intercept_'
p41
g11
(g15
S'\xfak\x99\xf8\xcc\xe1P@'
p42
tp43
Rp44
sb.